; Function Attrs: nounwind uwtable
define dso_local void @repo_config_set_in_file(ptr noundef %0, ptr noundef %1, ptr noundef %2, ptr noundef %3) local_unnamed_addr #0 {
  %5 = tail call i32 @repo_config_set_multivar_in_file_gently(ptr noundef %0, ptr noundef %1, ptr noundef %2, ptr noundef %3, ptr noundef null, ptr noundef null, i32 noundef 0)
  %.not.i = icmp eq i32 %5, 0
  br i1 %.not.i, label %repo_config_set_multivar_in_file.exit, label %6

6:                                                ; preds = %4
  %.not9.i = icmp eq ptr %3, null
  br i1 %.not9.i, label %9, label %7

7:                                                ; preds = %6
  %8 = tail call fastcc ptr @_(ptr noundef nonnull @.str.72)
  tail call void (ptr, ...) @die(ptr noundef %8, ptr noundef %2, ptr noundef nonnull %3) #31
  unreachable

9:                                                ; preds = %6
  %10 = tail call fastcc ptr @_(ptr noundef nonnull @.str.73)
  tail call void (ptr, ...) @die(ptr noundef %10, ptr noundef %2) #31
  unreachable

repo_config_set_multivar_in_file.exit:            ; preds = %4
  ret void
}